; Function Attrs: mustprogress uwtable
define internal fastcc void @_ZN2cv8parallelL22getParallelBackendNameB5cxx11Ev() unnamed_addr #3 personality ptr @__gxx_personality_v0 {
  %1 = alloca %"class.std::__cxx11::basic_string", align 8
  %2 = alloca %"class.std::__cxx11::basic_string", align 8
  %3 = alloca %"class.std::allocator.5", align 1
  %4 = load atomic i8, ptr @_ZGVZN2cv8parallelL22getParallelBackendNameB5cxx11EvE13g_backendNameB5cxx11 acquire, align 8
  %5 = icmp eq i8 %4, 0
  br i1 %5, label %6, label %25, !prof !3

6:                                                ; preds = %0
  %7 = tail call i32 @__cxa_guard_acquire(ptr nonnull @_ZGVZN2cv8parallelL22getParallelBackendNameB5cxx11EvE13g_backendNameB5cxx11) #29
  %.not = icmp eq i32 %7, 0
  br i1 %.not, label %25, label %8

8:                                                ; preds = %6
  call void @llvm.lifetime.start.p0(i64 32, ptr nonnull %1) #29
  call void @llvm.lifetime.start.p0(i64 32, ptr nonnull %2) #29
  call void @llvm.lifetime.start.p0(i64 1, ptr nonnull %3) #29
  invoke void @_ZNSt7__cxx1112basic_stringIcSt11char_traitsIcESaIcEEC2EPKcRKS3_(ptr noundef nonnull align 8 dereferenceable(32) %2, ptr noundef nonnull @.str.59, ptr noundef nonnull align 1 dereferenceable(1) %3)
          to label %9 unwind label %26

9:                                                ; preds = %8
  invoke void @_ZN2cv5utils31getConfigurationParameterStringEPKcRKNSt7__cxx1112basic_stringIcSt11char_traitsIcESaIcEEE(ptr dead_on_unwind nonnull writable sret(%"class.std::__cxx11::basic_string") align 8 %1, ptr noundef nonnull @.str.58, ptr noundef nonnull align 8 dereferenceable(32) %2)
          to label %10 unwind label %28

10:                                               ; preds = %9
  %.val = load ptr, ptr %1, align 8, !tbaa !7
  %11 = getelementptr inbounds nuw i8, ptr %1, i64 8
  %.val5 = load i64, ptr %11, align 8, !tbaa !15
  invoke fastcc void @_ZN2cvL11toUpperCaseERKNSt7__cxx1112basic_stringIcSt11char_traitsIcESaIcEEE(ptr dead_on_unwind noalias nonnull writable align 8 @_ZZN2cv8parallelL22getParallelBackendNameB5cxx11EvE13g_backendNameB5cxx11, ptr %.val, i64 %.val5)
          to label %12 unwind label %30

12:                                               ; preds = %10
  %13 = load ptr, ptr %1, align 8, !tbaa !7
  %14 = getelementptr inbounds nuw i8, ptr %1, i64 16
  %15 = icmp eq ptr %13, %14
  br i1 %15, label %_ZNKSt7__cxx1112basic_stringIcSt11char_traitsIcESaIcEE11_M_is_localEv.exit.thread.i.i, label %_ZNKSt7__cxx1112basic_stringIcSt11char_traitsIcESaIcEE11_M_is_localEv.exit.i.i

_ZNKSt7__cxx1112basic_stringIcSt11char_traitsIcESaIcEE11_M_is_localEv.exit.thread.i.i: ; preds = %12
  %16 = load i64, ptr %11, align 8, !tbaa !15
  %17 = icmp ult i64 %16, 16
  call void @llvm.assume(i1 %17)
  br label %_ZNSt7__cxx1112basic_stringIcSt11char_traitsIcESaIcEED2Ev.exit

_ZNKSt7__cxx1112basic_stringIcSt11char_traitsIcESaIcEE11_M_is_localEv.exit.i.i: ; preds = %12
  call void @_ZdlPv(ptr noundef %13) #31
  br label %_ZNSt7__cxx1112basic_stringIcSt11char_traitsIcESaIcEED2Ev.exit

_ZNSt7__cxx1112basic_stringIcSt11char_traitsIcESaIcEED2Ev.exit: ; preds = %_ZNKSt7__cxx1112basic_stringIcSt11char_traitsIcESaIcEE11_M_is_localEv.exit.thread.i.i, %_ZNKSt7__cxx1112basic_stringIcSt11char_traitsIcESaIcEE11_M_is_localEv.exit.i.i
  %18 = load ptr, ptr %2, align 8, !tbaa !7
  %19 = getelementptr inbounds nuw i8, ptr %2, i64 16
  %20 = icmp eq ptr %18, %19
  br i1 %20, label %_ZNKSt7__cxx1112basic_stringIcSt11char_traitsIcESaIcEE11_M_is_localEv.exit.thread.i.i7, label %_ZNKSt7__cxx1112basic_stringIcSt11char_traitsIcESaIcEE11_M_is_localEv.exit.i.i6

_ZNKSt7__cxx1112basic_stringIcSt11char_traitsIcESaIcEE11_M_is_localEv.exit.thread.i.i7: ; preds = %_ZNSt7__cxx1112basic_stringIcSt11char_traitsIcESaIcEED2Ev.exit
  %21 = getelementptr inbounds nuw i8, ptr %2, i64 8
  %22 = load i64, ptr %21, align 8, !tbaa !15
  %23 = icmp ult i64 %22, 16
  call void @llvm.assume(i1 %23)
  br label %_ZNSt7__cxx1112basic_stringIcSt11char_traitsIcESaIcEED2Ev.exit8

_ZNKSt7__cxx1112basic_stringIcSt11char_traitsIcESaIcEE11_M_is_localEv.exit.i.i6: ; preds = %_ZNSt7__cxx1112basic_stringIcSt11char_traitsIcESaIcEED2Ev.exit
  call void @_ZdlPv(ptr noundef %18) #31
  br label %_ZNSt7__cxx1112basic_stringIcSt11char_traitsIcESaIcEED2Ev.exit8

_ZNSt7__cxx1112basic_stringIcSt11char_traitsIcESaIcEED2Ev.exit8: ; preds = %_ZNKSt7__cxx1112basic_stringIcSt11char_traitsIcESaIcEE11_M_is_localEv.exit.thread.i.i7, %_ZNKSt7__cxx1112basic_stringIcSt11char_traitsIcESaIcEE11_M_is_localEv.exit.i.i6
  call void @llvm.lifetime.end.p0(i64 1, ptr nonnull %3) #29
  call void @llvm.lifetime.end.p0(i64 32, ptr nonnull %2) #29
  call void @llvm.lifetime.end.p0(i64 32, ptr nonnull %1) #29
  %24 = call i32 @__cxa_atexit(ptr nonnull @_ZNSt7__cxx1112basic_stringIcSt11char_traitsIcESaIcEED2Ev, ptr nonnull @_ZZN2cv8parallelL22getParallelBackendNameB5cxx11EvE13g_backendNameB5cxx11, ptr nonnull @__dso_handle) #29
  call void @__cxa_guard_release(ptr nonnull @_ZGVZN2cv8parallelL22getParallelBackendNameB5cxx11EvE13g_backendNameB5cxx11) #29
  br label %25

25:                                               ; preds = %_ZNSt7__cxx1112basic_stringIcSt11char_traitsIcESaIcEED2Ev.exit8, %6, %0
  ret void

26:                                               ; preds = %8
  %27 = landingpad { ptr, i32 }
          cleanup
  br label %_ZNSt7__cxx1112basic_stringIcSt11char_traitsIcESaIcEED2Ev.exit14

28:                                               ; preds = %9
  %29 = landingpad { ptr, i32 }
          cleanup
  br label %_ZNSt7__cxx1112basic_stringIcSt11char_traitsIcESaIcEED2Ev.exit11

30:                                               ; preds = %10
  %31 = landingpad { ptr, i32 }
          cleanup
  %32 = load ptr, ptr %1, align 8, !tbaa !7
  %33 = getelementptr inbounds nuw i8, ptr %1, i64 16
  %34 = icmp eq ptr %32, %33
  br i1 %34, label %_ZNKSt7__cxx1112basic_stringIcSt11char_traitsIcESaIcEE11_M_is_localEv.exit.thread.i.i10, label %_ZNKSt7__cxx1112basic_stringIcSt11char_traitsIcESaIcEE11_M_is_localEv.exit.i.i9

_ZNKSt7__cxx1112basic_stringIcSt11char_traitsIcESaIcEE11_M_is_localEv.exit.thread.i.i10: ; preds = %30
  %35 = load i64, ptr %11, align 8, !tbaa !15
  %36 = icmp ult i64 %35, 16
  call void @llvm.assume(i1 %36)
  br label %_ZNSt7__cxx1112basic_stringIcSt11char_traitsIcESaIcEED2Ev.exit11

_ZNKSt7__cxx1112basic_stringIcSt11char_traitsIcESaIcEE11_M_is_localEv.exit.i.i9: ; preds = %30
  call void @_ZdlPv(ptr noundef %32) #31
  br label %_ZNSt7__cxx1112basic_stringIcSt11char_traitsIcESaIcEED2Ev.exit11

_ZNSt7__cxx1112basic_stringIcSt11char_traitsIcESaIcEED2Ev.exit11: ; preds = %_ZNKSt7__cxx1112basic_stringIcSt11char_traitsIcESaIcEE11_M_is_localEv.exit.i.i9, %_ZNKSt7__cxx1112basic_stringIcSt11char_traitsIcESaIcEE11_M_is_localEv.exit.thread.i.i10, %28
  %.pn = phi { ptr, i32 } [ %29, %28 ], [ %31, %_ZNKSt7__cxx1112basic_stringIcSt11char_traitsIcESaIcEE11_M_is_localEv.exit.thread.i.i10 ], [ %31, %_ZNKSt7__cxx1112basic_stringIcSt11char_traitsIcESaIcEE11_M_is_localEv.exit.i.i9 ]
  %37 = load ptr, ptr %2, align 8, !tbaa !7
  %38 = getelementptr inbounds nuw i8, ptr %2, i64 16
  %39 = icmp eq ptr %37, %38
  br i1 %39, label %_ZNKSt7__cxx1112basic_stringIcSt11char_traitsIcESaIcEE11_M_is_localEv.exit.thread.i.i13, label %_ZNKSt7__cxx1112basic_stringIcSt11char_traitsIcESaIcEE11_M_is_localEv.exit.i.i12

_ZNKSt7__cxx1112basic_stringIcSt11char_traitsIcESaIcEE11_M_is_localEv.exit.thread.i.i13: ; preds = %_ZNSt7__cxx1112basic_stringIcSt11char_traitsIcESaIcEED2Ev.exit11
  %40 = getelementptr inbounds nuw i8, ptr %2, i64 8
  %41 = load i64, ptr %40, align 8, !tbaa !15
  %42 = icmp ult i64 %41, 16
  call void @llvm.assume(i1 %42)
  br label %_ZNSt7__cxx1112basic_stringIcSt11char_traitsIcESaIcEED2Ev.exit14

_ZNKSt7__cxx1112basic_stringIcSt11char_traitsIcESaIcEE11_M_is_localEv.exit.i.i12: ; preds = %_ZNSt7__cxx1112basic_stringIcSt11char_traitsIcESaIcEED2Ev.exit11
  call void @_ZdlPv(ptr noundef %37) #31
  br label %_ZNSt7__cxx1112basic_stringIcSt11char_traitsIcESaIcEED2Ev.exit14

_ZNSt7__cxx1112basic_stringIcSt11char_traitsIcESaIcEED2Ev.exit14: ; preds = %_ZNKSt7__cxx1112basic_stringIcSt11char_traitsIcESaIcEE11_M_is_localEv.exit.i.i12, %_ZNKSt7__cxx1112basic_stringIcSt11char_traitsIcESaIcEE11_M_is_localEv.exit.thread.i.i13, %26
  %.pn.pn = phi { ptr, i32 } [ %27, %26 ], [ %.pn, %_ZNKSt7__cxx1112basic_stringIcSt11char_traitsIcESaIcEE11_M_is_localEv.exit.thread.i.i13 ], [ %.pn, %_ZNKSt7__cxx1112basic_stringIcSt11char_traitsIcESaIcEE11_M_is_localEv.exit.i.i12 ]
  call void @llvm.lifetime.end.p0(i64 1, ptr nonnull %3) #29
  call void @llvm.lifetime.end.p0(i64 32, ptr nonnull %2) #29
  call void @llvm.lifetime.end.p0(i64 32, ptr nonnull %1) #29
  call void @__cxa_guard_abort(ptr nonnull @_ZGVZN2cv8parallelL22getParallelBackendNameB5cxx11EvE13g_backendNameB5cxx11) #29
  resume { ptr, i32 } %.pn.pn
}